; Function Attrs: mustprogress uwtable
define void @_ZNK3gmx15OptionsIterator14acceptSectionsEPNS_14OptionsVisitorE(ptr nocapture noundef nonnull readonly align 8 dereferenceable(8) %0, ptr noundef %1) local_unnamed_addr #0 align 2 {
  %3 = load ptr, ptr %0, align 8
  %4 = getelementptr inbounds i8, ptr %3, i64 176
  %5 = load ptr, ptr %4, align 8
  %6 = getelementptr inbounds i8, ptr %3, i64 184
  %7 = load ptr, ptr %6, align 8
  %.not8 = icmp eq ptr %5, %7
  br i1 %.not8, label %._crit_edge, label %.lr.ph

.lr.ph:                                           ; preds = %2, %.lr.ph
  %.sroa.05.09 = phi ptr [ %13, %.lr.ph ], [ %5, %2 ]
  %8 = load ptr, ptr %.sroa.05.09, align 8
  %9 = getelementptr inbounds i8, ptr %8, i64 24
  %10 = load ptr, ptr %1, align 8
  %11 = getelementptr inbounds i8, ptr %10, i64 16
  %12 = load ptr, ptr %11, align 8
  tail call void %12(ptr noundef nonnull align 8 dereferenceable(8) %1, ptr noundef nonnull align 8 dereferenceable(8) %9)
  %13 = getelementptr inbounds i8, ptr %.sroa.05.09, i64 8
  %.not = icmp eq ptr %13, %7
  br i1 %.not, label %._crit_edge, label %.lr.ph

._crit_edge:                                      ; preds = %.lr.ph, %2
  ret void
}